	.file	"lab3.c"
	.text
.Ltext0:
	.section	.rodata.str1.8,"aMS",@progbits,1
	.align 8
.LC0:
	.string	"You are taking this class: %d %d \n"
	.text
	.p2align 4
	.globl	fibonacci
	.type	fibonacci, @function
fibonacci:
.LVL0:
.LFB13:
	.file 1 "lab3.c"
	.loc 1 9 1 view -0
	.cfi_startproc
	.loc 1 9 1 is_stmt 0 view .LVU1
	endbr64
	pushq	%r12
	.cfi_def_cfa_offset 16
	.cfi_offset 12, -16
.LBB8:
.LBB9:
	.file 2 "/usr/include/x86_64-linux-gnu/bits/stdio2.h"
	.loc 2 107 10 view .LVU2
	leaq	.LC0(%rip), %r12
.LBE9:
.LBE8:
	.loc 1 9 1 view .LVU3
	pushq	%rbp
	.cfi_def_cfa_offset 24
	.cfi_offset 6, -24
	xorl	%ebp, %ebp
	pushq	%rbx
	.cfi_def_cfa_offset 32
	.cfi_offset 3, -32
	.loc 1 9 1 view .LVU4
	movl	%edi, %ebx
.LVL1:
.L3:
	.loc 1 10 5 is_stmt 1 view .LVU5
	.loc 1 11 5 view .LVU6
	.loc 1 12 5 view .LVU7
	.loc 1 14 5 view .LVU8
	xorl	%eax, %eax
	call	helper_func@PLT
.LVL2:
.LBB12:
.LBB10:
	.loc 2 107 10 is_stmt 0 view .LVU9
	movl	%ebx, %ecx
	movq	%r12, %rsi
	movl	$1, %edi
.LBE10:
.LBE12:
	.loc 1 14 5 view .LVU10
	movl	%eax, %edx
.LVL3:
.LBB13:
.LBI8:
	.loc 2 105 1 is_stmt 1 view .LVU11
.LBB11:
	.loc 2 107 3 view .LVU12
	.loc 2 107 10 is_stmt 0 view .LVU13
	xorl	%eax, %eax
	call	__printf_chk@PLT
.LVL4:
	.loc 2 107 10 view .LVU14
.LBE11:
.LBE13:
	.loc 1 16 5 is_stmt 1 view .LVU15
	.loc 1 16 8 is_stmt 0 view .LVU16
	cmpl	$1, %ebx
	jle	.L7
	.loc 1 18 5 is_stmt 1 view .LVU17
	.loc 1 18 12 is_stmt 0 view .LVU18
	leal	-1(%rbx), %edi
	.loc 1 18 31 view .LVU19
	subl	$2, %ebx
.LVL5:
	.loc 1 18 12 view .LVU20
	call	fibonacci
.LVL6:
	addl	%eax, %ebp
	.loc 1 18 29 view .LVU21
	jmp	.L3
.LVL7:
	.p2align 4,,10
	.p2align 3
.L7:
	.loc 1 17 9 is_stmt 1 view .LVU22
	leal	(%rbx,%rbp), %eax
	.loc 1 19 1 is_stmt 0 view .LVU23
	popq	%rbx
	.cfi_def_cfa_offset 24
.LVL8:
	.loc 1 19 1 view .LVU24
	popq	%rbp
	.cfi_def_cfa_offset 16
	popq	%r12
	.cfi_def_cfa_offset 8
	ret
	.cfi_endproc
.LFE13:
	.size	fibonacci, .-fibonacci
	.section	.rodata.str1.1,"aMS",@progbits,1
.LC1:
	.string	"fib(%d) = %d\n"
	.section	.rodata.str1.8
	.align 8
.LC3:
	.string	"clocks ticks: %f \nTime in seconds taken by CPU: %f \n"
	.section	.text.startup,"ax",@progbits
	.p2align 4
	.globl	main
	.type	main, @function
main:
.LFB14:
	.loc 1 22 1 is_stmt 1 view -0
	.cfi_startproc
	endbr64
	.loc 1 23 5 view .LVU26
	.loc 1 22 1 is_stmt 0 view .LVU27
	pushq	%rbx
	.cfi_def_cfa_offset 16
	.cfi_offset 3, -16
	.loc 1 23 21 view .LVU28
	call	clock@PLT
.LVL9:
	.loc 1 25 22 view .LVU29
	movl	$25, %edi
	.loc 1 23 21 view .LVU30
	movq	%rax, %rbx
.LVL10:
	.loc 1 24 5 is_stmt 1 view .LVU31
	.loc 1 25 5 view .LVU32
	.loc 1 25 22 is_stmt 0 view .LVU33
	call	fibonacci
.LVL11:
.LBB14:
.LBB15:
	.loc 2 107 10 view .LVU34
	movl	$25, %edx
	movl	$1, %edi
	leaq	.LC1(%rip), %rsi
.LBE15:
.LBE14:
	.loc 1 25 22 view .LVU35
	movl	%eax, %ecx
.LVL12:
	.loc 1 26 5 is_stmt 1 view .LVU36
.LBB17:
.LBI14:
	.loc 2 105 1 view .LVU37
.LBB16:
	.loc 2 107 3 view .LVU38
	.loc 2 107 10 is_stmt 0 view .LVU39
	xorl	%eax, %eax
.LVL13:
	.loc 2 107 10 view .LVU40
	call	__printf_chk@PLT
.LVL14:
	.loc 2 107 10 view .LVU41
.LBE16:
.LBE17:
	.loc 1 27 5 is_stmt 1 view .LVU42
	.loc 1 29 5 view .LVU43
	.loc 1 29 13 is_stmt 0 view .LVU44
	call	clock@PLT
.LVL15:
	.loc 1 30 5 is_stmt 1 view .LVU45
	.loc 1 30 33 is_stmt 0 view .LVU46
	pxor	%xmm0, %xmm0
.LBB18:
.LBB19:
	.loc 2 107 10 view .LVU47
	movl	$1, %edi
	leaq	.LC3(%rip), %rsi
.LBE19:
.LBE18:
	.loc 1 29 11 view .LVU48
	subq	%rbx, %rax
.LVL16:
	.loc 1 30 33 view .LVU49
	cvtsi2sdq	%rax, %xmm0
.LVL17:
	.loc 1 32 5 is_stmt 1 view .LVU50
.LBB21:
.LBI18:
	.loc 2 105 1 view .LVU51
.LBB20:
	.loc 2 107 3 view .LVU52
	.loc 2 107 10 is_stmt 0 view .LVU53
	movl	$2, %eax
.LVL18:
	.loc 2 107 10 view .LVU54
	movapd	%xmm0, %xmm1
	divsd	.LC2(%rip), %xmm1
.LVL19:
	.loc 2 107 10 view .LVU55
	call	__printf_chk@PLT
.LVL20:
	.loc 2 107 10 view .LVU56
.LBE20:
.LBE21:
	.loc 1 33 5 is_stmt 1 view .LVU57
	.loc 1 34 1 is_stmt 0 view .LVU58
	xorl	%eax, %eax
	popq	%rbx
	.cfi_def_cfa_offset 8
	ret
	.cfi_endproc
.LFE14:
	.size	main, .-main
	.section	.rodata.cst8,"aM",@progbits,8
	.align 8
.LC2:
	.long	0
	.long	1093567616
	.text
.Letext0:
	.file 3 "/usr/lib/gcc/x86_64-linux-gnu/9/include/stddef.h"
	.file 4 "/usr/include/x86_64-linux-gnu/bits/types.h"
	.file 5 "/usr/include/x86_64-linux-gnu/bits/types/struct_FILE.h"
	.file 6 "/usr/include/x86_64-linux-gnu/bits/types/FILE.h"
	.file 7 "/usr/include/stdio.h"
	.file 8 "/usr/include/x86_64-linux-gnu/bits/types/clock_t.h"
	.file 9 "/usr/include/time.h"
	.file 10 "lab3_helper.h"
	.section	.note.GNU-stack,"",@progbits
	.section	.note.gnu.property,"a"
	.align 8
	.long	 1f - 0f
	.long	 4f - 1f
	.long	 5
0:
	.string	 "GNU"
1:
	.align 8
	.long	 0xc0000002
	.long	 3f - 2f
2:
	.long	 0x3
3:
	.align 8
4:
